; Function Attrs: mustprogress nounwind uwtable
define void @_ZN6icu_7722UnescapeTransliteratorD2Ev(ptr noundef nonnull align 8 dereferenceable(96) initializes((0, 8)) %0) unnamed_addr #0 align 2 personality ptr @__gxx_personality_v0 {
  store ptr getelementptr inbounds nuw inrange(-16, 136) (i8, ptr @_ZTVN6icu_7722UnescapeTransliteratorE, i64 16), ptr %0, align 8, !tbaa !19
  %2 = getelementptr inbounds nuw i8, ptr %0, i64 88
  %3 = load ptr, ptr %2, align 8, !tbaa !25
  invoke void @uprv_free_77(ptr noundef %3)
          to label %4 unwind label %5

4:                                                ; preds = %1
  tail call void @_ZN6icu_7714TransliteratorD2Ev(ptr noundef nonnull align 8 dereferenceable(84) %0) #13
  ret void

5:                                                ; preds = %1
  %6 = landingpad { ptr, i32 }
          catch ptr null
  %7 = extractvalue { ptr, i32 } %6, 0
  tail call void @__clang_call_terminate(ptr %7) #15
  unreachable
}